
Discarded input sections

 .text          0x00000000        0x0 ../obj/main.o
 .data          0x00000000        0x0 ../obj/main.o
 .bss           0x00000000        0x0 ../obj/main.o
 .text          0x00000000        0x0 ../obj/startup_stm32f4xx.o
 .data          0x00000000        0x0 ../obj/startup_stm32f4xx.o
 .bss           0x00000000        0x0 ../obj/startup_stm32f4xx.o
 .text          0x00000000        0x0 ../obj/stm32f4xx_syscfg.o
 .data          0x00000000        0x0 ../obj/stm32f4xx_syscfg.o
 .bss           0x00000000        0x0 ../obj/stm32f4xx_syscfg.o
 .text.SYSCFG_DeInit
                0x00000000       0x1c ../obj/stm32f4xx_syscfg.o
 .text.SYSCFG_MemoryRemapConfig
                0x00000000       0x20 ../obj/stm32f4xx_syscfg.o
 .text.SYSCFG_EXTILineConfig
                0x00000000       0x84 ../obj/stm32f4xx_syscfg.o
 .text.SYSCFG_ETH_MediaInterfaceConfig
                0x00000000       0x1c ../obj/stm32f4xx_syscfg.o
 .text.SYSCFG_CompensationCellCmd
                0x00000000       0x20 ../obj/stm32f4xx_syscfg.o
 .text.SYSCFG_GetCompensationCellStatus
                0x00000000       0x30 ../obj/stm32f4xx_syscfg.o
 .debug_info    0x00000000      0x278 ../obj/stm32f4xx_syscfg.o
 .debug_abbrev  0x00000000      0x135 ../obj/stm32f4xx_syscfg.o
 .debug_aranges
                0x00000000       0x48 ../obj/stm32f4xx_syscfg.o
 .debug_ranges  0x00000000       0x38 ../obj/stm32f4xx_syscfg.o
 .debug_line    0x00000000      0x1ef ../obj/stm32f4xx_syscfg.o
 .debug_str     0x00000000      0x319 ../obj/stm32f4xx_syscfg.o
 .comment       0x00000000       0x6f ../obj/stm32f4xx_syscfg.o
 .debug_frame   0x00000000       0xf4 ../obj/stm32f4xx_syscfg.o
 .ARM.attributes
                0x00000000       0x33 ../obj/stm32f4xx_syscfg.o
 .text          0x00000000        0x0 ../obj/system_stm32f4xx.o
 .data          0x00000000       0x14 ../obj/system_stm32f4xx.o
 .bss           0x00000000        0x0 ../obj/system_stm32f4xx.o
 .text.SystemCoreClockUpdate
                0x00000000       0xf8 ../obj/system_stm32f4xx.o
 .text          0x00000000        0x0 ../obj/stm32f4xx_rcc.o
 .data          0x00000000       0x10 ../obj/stm32f4xx_rcc.o
 .bss           0x00000000        0x0 ../obj/stm32f4xx_rcc.o
 .text.RCC_DeInit
                0x00000000       0x50 ../obj/stm32f4xx_rcc.o
 .text.RCC_HSEConfig
                0x00000000       0x24 ../obj/stm32f4xx_rcc.o
 .text.RCC_WaitForHSEStartUp
                0x00000000       0x50 ../obj/stm32f4xx_rcc.o
 .text.RCC_AdjustHSICalibrationValue
                0x00000000       0x3c ../obj/stm32f4xx_rcc.o
 .text.RCC_HSICmd
                0x00000000       0x20 ../obj/stm32f4xx_rcc.o
 .text.RCC_LSEConfig
                0x00000000       0x40 ../obj/stm32f4xx_rcc.o
 .text.RCC_LSICmd
                0x00000000       0x20 ../obj/stm32f4xx_rcc.o
 .text.RCC_PLLConfig
                0x00000000       0x3c ../obj/stm32f4xx_rcc.o
 .text.RCC_PLLCmd
                0x00000000       0x20 ../obj/stm32f4xx_rcc.o
 .text.RCC_PLLI2SConfig
                0x00000000       0x28 ../obj/stm32f4xx_rcc.o
 .text.RCC_PLLI2SCmd
                0x00000000       0x20 ../obj/stm32f4xx_rcc.o
 .text.RCC_ClockSecuritySystemCmd
                0x00000000       0x20 ../obj/stm32f4xx_rcc.o
 .text.RCC_MCO1Config
                0x00000000       0x3c ../obj/stm32f4xx_rcc.o
 .text.RCC_MCO2Config
                0x00000000       0x3c ../obj/stm32f4xx_rcc.o
 .text.RCC_SYSCLKConfig
                0x00000000       0x38 ../obj/stm32f4xx_rcc.o
 .text.RCC_GetSYSCLKSource
                0x00000000       0x1c ../obj/stm32f4xx_rcc.o
 .text.RCC_HCLKConfig
                0x00000000       0x38 ../obj/stm32f4xx_rcc.o
 .text.RCC_PCLK1Config
                0x00000000       0x38 ../obj/stm32f4xx_rcc.o
 .text.RCC_PCLK2Config
                0x00000000       0x38 ../obj/stm32f4xx_rcc.o
 .text.RCC_GetClocksFreq
                0x00000000      0x154 ../obj/stm32f4xx_rcc.o
 .text.RCC_RTCCLKConfig
                0x00000000       0x5c ../obj/stm32f4xx_rcc.o
 .text.RCC_RTCCLKCmd
                0x00000000       0x20 ../obj/stm32f4xx_rcc.o
 .text.RCC_BackupResetCmd
                0x00000000       0x20 ../obj/stm32f4xx_rcc.o
 .text.RCC_I2SCLKConfig
                0x00000000       0x1c ../obj/stm32f4xx_rcc.o
 .text.RCC_AHB2PeriphClockCmd
                0x00000000       0x3c ../obj/stm32f4xx_rcc.o
 .text.RCC_AHB3PeriphClockCmd
                0x00000000       0x3c ../obj/stm32f4xx_rcc.o
 .text.RCC_APB1PeriphClockCmd
                0x00000000       0x3c ../obj/stm32f4xx_rcc.o
 .text.RCC_APB2PeriphClockCmd
                0x00000000       0x3c ../obj/stm32f4xx_rcc.o
 .text.RCC_AHB1PeriphResetCmd
                0x00000000       0x3c ../obj/stm32f4xx_rcc.o
 .text.RCC_AHB2PeriphResetCmd
                0x00000000       0x3c ../obj/stm32f4xx_rcc.o
 .text.RCC_AHB3PeriphResetCmd
                0x00000000       0x3c ../obj/stm32f4xx_rcc.o
 .text.RCC_APB1PeriphResetCmd
                0x00000000       0x3c ../obj/stm32f4xx_rcc.o
 .text.RCC_APB2PeriphResetCmd
                0x00000000       0x3c ../obj/stm32f4xx_rcc.o
 .text.RCC_AHB1PeriphClockLPModeCmd
                0x00000000       0x3c ../obj/stm32f4xx_rcc.o
 .text.RCC_AHB2PeriphClockLPModeCmd
                0x00000000       0x3c ../obj/stm32f4xx_rcc.o
 .text.RCC_AHB3PeriphClockLPModeCmd
                0x00000000       0x3c ../obj/stm32f4xx_rcc.o
 .text.RCC_APB1PeriphClockLPModeCmd
                0x00000000       0x3c ../obj/stm32f4xx_rcc.o
 .text.RCC_APB2PeriphClockLPModeCmd
                0x00000000       0x3c ../obj/stm32f4xx_rcc.o
 .text.RCC_ITConfig
                0x00000000       0x4c ../obj/stm32f4xx_rcc.o
 .text.RCC_GetFlagStatus
                0x00000000       0x74 ../obj/stm32f4xx_rcc.o
 .text.RCC_ClearFlag
                0x00000000       0x1c ../obj/stm32f4xx_rcc.o
 .text.RCC_GetITStatus
                0x00000000       0x34 ../obj/stm32f4xx_rcc.o
 .text.RCC_ClearITPendingBit
                0x00000000       0x20 ../obj/stm32f4xx_rcc.o
 .text          0x00000000        0x0 ../obj/stm32f4xx_gpio.o
 .data          0x00000000        0x0 ../obj/stm32f4xx_gpio.o
 .bss           0x00000000        0x0 ../obj/stm32f4xx_gpio.o
 .text.GPIO_DeInit
                0x00000000      0x120 ../obj/stm32f4xx_gpio.o
 .text.GPIO_StructInit
                0x00000000       0x34 ../obj/stm32f4xx_gpio.o
 .text.GPIO_PinLockConfig
                0x00000000       0x44 ../obj/stm32f4xx_gpio.o
 .text.GPIO_ReadInputDataBit
                0x00000000       0x34 ../obj/stm32f4xx_gpio.o
 .text.GPIO_ReadInputData
                0x00000000       0x18 ../obj/stm32f4xx_gpio.o
 .text.GPIO_ReadOutputDataBit
                0x00000000       0x34 ../obj/stm32f4xx_gpio.o
 .text.GPIO_ReadOutputData
                0x00000000       0x18 ../obj/stm32f4xx_gpio.o
 .text.GPIO_SetBits
                0x00000000       0x1c ../obj/stm32f4xx_gpio.o
 .text.GPIO_ResetBits
                0x00000000       0x1c ../obj/stm32f4xx_gpio.o
 .text.GPIO_WriteBit
                0x00000000       0x30 ../obj/stm32f4xx_gpio.o
 .text.GPIO_Write
                0x00000000       0x1c ../obj/stm32f4xx_gpio.o
 .text.GPIO_ToggleBits
                0x00000000       0x24 ../obj/stm32f4xx_gpio.o
 .text.GPIO_PinAFConfig
                0x00000000       0x90 ../obj/stm32f4xx_gpio.o

Memory Configuration

Name             Origin             Length             Attributes
FLASH            0x08000000         0x00100000         xr
RAM              0x20000000         0x0001c000         xrw
MEMORY_B1        0x60000000         0x00000000         xr
*default*        0x00000000         0xffffffff

Linker script and memory map

                0x2001c000                _estack = 0x2001c000
                0x00000000                _Min_Heap_Size = 0x0
                0x00000400                _Min_Stack_Size = 0x400

.isr_vector     0x08000000      0x188
                0x08000000                . = ALIGN (0x4)
 *(.isr_vector)
 .isr_vector    0x08000000      0x188 ../obj/startup_stm32f4xx.o
                0x08000000                g_pfnVectors
                0x08000188                . = ALIGN (0x4)

.text           0x08000188      0x36c
                0x08000188                . = ALIGN (0x4)
 *(.text)
 *(.text*)
 .text.main     0x08000188       0x60 ../obj/main.o
                0x08000188                main
 .text.Default_Reset_Handler
                0x080001e8       0x5c ../obj/startup_stm32f4xx.o
                0x080001e8                Default_Reset_Handler
                0x080001e8                Reset_Handler
 .text.Default_Handler
                0x08000244        0x8 ../obj/startup_stm32f4xx.o
                0x08000244                RTC_Alarm_IRQHandler
                0x08000244                HASH_RNG_IRQHandler
                0x08000244                EXTI2_IRQHandler
                0x08000244                TIM8_CC_IRQHandler
                0x08000244                DebugMon_Handler
                0x08000244                TIM1_CC_IRQHandler
                0x08000244                DMA2_Stream5_IRQHandler
                0x08000244                HardFault_Handler
                0x08000244                DMA1_Stream5_IRQHandler
                0x08000244                SysTick_Handler
                0x08000244                PVD_IRQHandler
                0x08000244                SDIO_IRQHandler
                0x08000244                TAMP_STAMP_IRQHandler
                0x08000244                PendSV_Handler
                0x08000244                NMI_Handler
                0x08000244                CAN2_RX1_IRQHandler
                0x08000244                EXTI3_IRQHandler
                0x08000244                TIM8_TRG_COM_TIM14_IRQHandler
                0x08000244                TIM1_UP_TIM10_IRQHandler
                0x08000244                TIM8_UP_TIM13_IRQHandler
                0x08000244                I2C3_ER_IRQHandler
                0x08000244                EXTI0_IRQHandler
                0x08000244                I2C2_EV_IRQHandler
                0x08000244                DMA1_Stream2_IRQHandler
                0x08000244                CAN1_RX0_IRQHandler
                0x08000244                FPU_IRQHandler
                0x08000244                OTG_HS_WKUP_IRQHandler
                0x08000244                UsageFault_Handler
                0x08000244                CAN2_SCE_IRQHandler
                0x08000244                DMA2_Stream2_IRQHandler
                0x08000244                SPI1_IRQHandler
                0x08000244                TIM6_DAC_IRQHandler
                0x08000244                TIM1_BRK_TIM9_IRQHandler
                0x08000244                DCMI_IRQHandler
                0x08000244                CAN2_RX0_IRQHandler
                0x08000244                DMA2_Stream3_IRQHandler
                0x08000244                USART6_IRQHandler
                0x08000244                USART3_IRQHandler
                0x08000244                CRYP_IRQHandler
                0x08000244                CAN1_RX1_IRQHandler
                0x08000244                UART5_IRQHandler
                0x08000244                DMA2_Stream0_IRQHandler
                0x08000244                TIM4_IRQHandler
                0x08000244                I2C1_EV_IRQHandler
                0x08000244                DMA1_Stream6_IRQHandler
                0x08000244                DMA1_Stream1_IRQHandler
                0x08000244                UART4_IRQHandler
                0x08000244                TIM3_IRQHandler
                0x08000244                RCC_IRQHandler
                0x08000244                TIM8_BRK_TIM12_IRQHandler
                0x08000244                EXTI15_10_IRQHandler
                0x08000244                ADC_IRQHandler
                0x08000244                DMA1_Stream7_IRQHandler
                0x08000244                TIM7_IRQHandler
                0x08000244                CAN2_TX_IRQHandler
                0x08000244                TIM5_IRQHandler
                0x08000244                DMA2_Stream7_IRQHandler
                0x08000244                I2C3_EV_IRQHandler
                0x08000244                EXTI9_5_IRQHandler
                0x08000244                RTC_WKUP_IRQHandler
                0x08000244                ETH_WKUP_IRQHandler
                0x08000244                SPI2_IRQHandler
                0x08000244                OTG_HS_EP1_IN_IRQHandler
                0x08000244                MemManage_Handler
                0x08000244                DMA1_Stream0_IRQHandler
                0x08000244                CAN1_TX_IRQHandler
                0x08000244                SVC_Handler
                0x08000244                EXTI4_IRQHandler
                0x08000244                FSMC_IRQHandler
                0x08000244                ETH_IRQHandler
                0x08000244                OTG_HS_EP1_OUT_IRQHandler
                0x08000244                WWDG_IRQHandler
                0x08000244                TIM2_IRQHandler
                0x08000244                OTG_FS_WKUP_IRQHandler
                0x08000244                TIM1_TRG_COM_TIM11_IRQHandler
                0x08000244                OTG_HS_IRQHandler
                0x08000244                EXTI1_IRQHandler
                0x08000244                USART2_IRQHandler
                0x08000244                I2C2_ER_IRQHandler
                0x08000244                DMA2_Stream1_IRQHandler
                0x08000244                CAN1_SCE_IRQHandler
                0x08000244                FLASH_IRQHandler
                0x08000244                DMA2_Stream4_IRQHandler
                0x08000244                BusFault_Handler
                0x08000244                USART1_IRQHandler
                0x08000244                OTG_FS_IRQHandler
                0x08000244                SPI3_IRQHandler
                0x08000244                DMA1_Stream4_IRQHandler
                0x08000244                I2C1_ER_IRQHandler
                0x08000244                DMA2_Stream6_IRQHandler
                0x08000244                DMA1_Stream3_IRQHandler
 .text.SystemInit
                0x0800024c       0x5c ../obj/system_stm32f4xx.o
                0x0800024c                SystemInit
 .text.SetSysClock
                0x080002a8       0xf4 ../obj/system_stm32f4xx.o
 .text.RCC_AHB1PeriphClockCmd
                0x0800039c       0x3c ../obj/stm32f4xx_rcc.o
                0x0800039c                RCC_AHB1PeriphClockCmd
 .text.GPIO_Init
                0x080003d8      0x11c ../obj/stm32f4xx_gpio.o
                0x080003d8                GPIO_Init
 *(.rodata)
 *(.rodata*)
 *(.glue_7)
 .glue_7        0x080004f4        0x0 linker stubs
 *(.glue_7t)
 .glue_7t       0x080004f4        0x0 linker stubs
 *(.eh_frame)
 *(.init)
 *(.fini)
                0x080004f4                . = ALIGN (0x4)
                0x080004f4                _etext = .

.vfp11_veneer   0x080004f4        0x0
 .vfp11_veneer  0x080004f4        0x0 linker stubs

.v4_bx          0x080004f4        0x0
 .v4_bx         0x080004f4        0x0 linker stubs

.iplt           0x080004f4        0x0
 .iplt          0x080004f4        0x0 ../obj/main.o

.rel.dyn        0x080004f4        0x0
 .rel.iplt      0x080004f4        0x0 ../obj/main.o

.ARM.extab
 *(.ARM.extab* .gnu.linkonce.armextab.*)

.ARM            0x080004f4        0x0
                0x080004f4                __exidx_start = .
 *(.ARM.exidx*)
                0x080004f4                __exidx_end = .

.preinit_array  0x080004f4        0x0
                [!provide]                PROVIDE (__preinit_array_start, .)
 *(.preinit_array*)
                [!provide]                PROVIDE (__preinit_array_end, .)

.init_array     0x080004f4        0x0
                [!provide]                PROVIDE (__init_array_start, .)
 *(SORT(.init_array.*))
 *(.init_array*)
                [!provide]                PROVIDE (__init_array_end, .)

.fini_array     0x080004f4        0x0
                [!provide]                PROVIDE (__fini_array_start, .)
 *(.fini_array*)
 *(SORT(.fini_array.*))
                [!provide]                PROVIDE (__fini_array_end, .)
                0x080004f4                _sidata = .

.data           0x20000000        0x0 load address 0x080004f4
                0x20000000                . = ALIGN (0x4)
                0x20000000                _sdata = .
 *(.data)
 *(.data*)
                0x20000000                . = ALIGN (0x4)
                0x20000000                _edata = .

.igot.plt       0x20000000        0x0
 .igot.plt      0x20000000        0x0 ../obj/main.o

.co_stack       0x20000000      0x800
 .co_stack      0x20000000      0x800 ../obj/startup_stm32f4xx.o
                0x20000000                pulStack
                0x20000800                . = ALIGN (0x4)

.bss            0x20000800        0x0
                0x20000800                _sbss = .
                0x20000800                __bss_start__ = _sbss
 *(.bss)
 *(.bss*)
 *(COMMON)
                0x20000800                . = ALIGN (0x4)
                0x20000800                _ebss = .
                0x20000800                __bss_end__ = _ebss

._user_heap_stack
                0x20000800      0x400
                0x20000800                . = ALIGN (0x4)
                [!provide]                PROVIDE (end, .)
                [!provide]                PROVIDE (_end, .)
                0x20000800                . = (. + _Min_Heap_Size)
                0x20000c00                . = (. + _Min_Stack_Size)
 *fill*         0x20000800      0x400 
                0x20000c00                . = ALIGN (0x4)

.memory_b1_text
 *(.mb1text)
 *(.mb1text*)
 *(.mb1rodata)
 *(.mb1rodata*)

/DISCARD/
 libc.a(*)
 libm.a(*)
 libgcc.a(*)

.ARM.attributes
                0x00000000       0x33
 *(.ARM.attributes)
 .ARM.attributes
                0x00000000       0x33 ../obj/main.o
 .ARM.attributes
                0x00000033       0x33 ../obj/startup_stm32f4xx.o
 .ARM.attributes
                0x00000066       0x33 ../obj/system_stm32f4xx.o
 .ARM.attributes
                0x00000099       0x33 ../obj/stm32f4xx_rcc.o
 .ARM.attributes
                0x000000cc       0x33 ../obj/stm32f4xx_gpio.o
LOAD ../obj/main.o
LOAD ../obj/startup_stm32f4xx.o
LOAD ../obj/stm32f4xx_syscfg.o
LOAD ../obj/system_stm32f4xx.o
LOAD ../obj/stm32f4xx_rcc.o
LOAD ../obj/stm32f4xx_gpio.o
START GROUP
LOAD c:/program files (x86)/gnu tools arm embedded/5.2 2015q4/bin/../lib/gcc/arm-none-eabi/5.2.1/armv7e-m\libgcc.a
LOAD c:/program files (x86)/gnu tools arm embedded/5.2 2015q4/bin/../lib/gcc/arm-none-eabi/5.2.1/../../../../arm-none-eabi/lib/armv7e-m\libg.a
LOAD c:/program files (x86)/gnu tools arm embedded/5.2 2015q4/bin/../lib/gcc/arm-none-eabi/5.2.1/../../../../arm-none-eabi/lib/armv7e-m\libc.a
END GROUP
OUTPUT(template.elf elf32-littlearm)

.debug_info     0x00000000     0x1c1b
 .debug_info    0x00000000      0x315 ../obj/main.o
 .debug_info    0x00000315       0xf1 ../obj/startup_stm32f4xx.o
 .debug_info    0x00000406      0x59a ../obj/system_stm32f4xx.o
 .debug_info    0x000009a0      0xc5d ../obj/stm32f4xx_rcc.o
 .debug_info    0x000015fd      0x61e ../obj/stm32f4xx_gpio.o

.debug_abbrev   0x00000000      0x6c5
 .debug_abbrev  0x00000000      0x149 ../obj/main.o
 .debug_abbrev  0x00000149       0xb2 ../obj/startup_stm32f4xx.o
 .debug_abbrev  0x000001fb      0x13a ../obj/system_stm32f4xx.o
 .debug_abbrev  0x00000335      0x1e7 ../obj/stm32f4xx_rcc.o
 .debug_abbrev  0x0000051c      0x1a9 ../obj/stm32f4xx_gpio.o

.debug_aranges  0x00000000      0x278
 .debug_aranges
                0x00000000       0x20 ../obj/main.o
 .debug_aranges
                0x00000020       0x28 ../obj/startup_stm32f4xx.o
 .debug_aranges
                0x00000048       0x30 ../obj/system_stm32f4xx.o
 .debug_aranges
                0x00000078      0x178 ../obj/stm32f4xx_rcc.o
 .debug_aranges
                0x000001f0       0x88 ../obj/stm32f4xx_gpio.o

.debug_ranges   0x00000000      0x228
 .debug_ranges  0x00000000       0x10 ../obj/main.o
 .debug_ranges  0x00000010       0x18 ../obj/startup_stm32f4xx.o
 .debug_ranges  0x00000028       0x20 ../obj/system_stm32f4xx.o
 .debug_ranges  0x00000048      0x168 ../obj/stm32f4xx_rcc.o
 .debug_ranges  0x000001b0       0x78 ../obj/stm32f4xx_gpio.o

.debug_line     0x00000000      0xcb0
 .debug_line    0x00000000      0x1a6 ../obj/main.o
 .debug_line    0x000001a6       0x88 ../obj/startup_stm32f4xx.o
 .debug_line    0x0000022e      0x1db ../obj/system_stm32f4xx.o
 .debug_line    0x00000409      0x576 ../obj/stm32f4xx_rcc.o
 .debug_line    0x0000097f      0x331 ../obj/stm32f4xx_gpio.o

.debug_str      0x00000000      0xca3
 .debug_str     0x00000000      0x2f6 ../obj/main.o
                                0x349 (size before relaxing)
 .debug_str     0x000002f6       0x97 ../obj/startup_stm32f4xx.o
                                0x165 (size before relaxing)
 .debug_str     0x0000038d      0x204 ../obj/system_stm32f4xx.o
                                0x3b1 (size before relaxing)
 .debug_str     0x00000591      0x581 ../obj/stm32f4xx_rcc.o
                                0x875 (size before relaxing)
 .debug_str     0x00000b12      0x191 ../obj/stm32f4xx_gpio.o
                                0x4c8 (size before relaxing)

.comment        0x00000000       0x6e
 .comment       0x00000000       0x6e ../obj/main.o
                                 0x6f (size before relaxing)
 .comment       0x0000006e       0x6f ../obj/startup_stm32f4xx.o
 .comment       0x0000006e       0x6f ../obj/system_stm32f4xx.o
 .comment       0x0000006e       0x6f ../obj/stm32f4xx_rcc.o
 .comment       0x0000006e       0x6f ../obj/stm32f4xx_gpio.o

.debug_frame    0x00000000      0xa08
 .debug_frame   0x00000000       0x30 ../obj/main.o
 .debug_frame   0x00000030       0x4c ../obj/startup_stm32f4xx.o
 .debug_frame   0x0000007c       0x7c ../obj/system_stm32f4xx.o
 .debug_frame   0x000000f8      0x6d4 ../obj/stm32f4xx_rcc.o
 .debug_frame   0x000007cc      0x23c ../obj/stm32f4xx_gpio.o
